; Function Attrs: mustprogress nofree nounwind willreturn memory(readwrite, argmem: none) uwtable
define noalias noundef ptr @KINDlsGetReturnFlagName(i64 noundef %0) local_unnamed_addr #2 {
  %2 = tail call noalias dereferenceable_or_null(30) ptr @malloc(i64 noundef 30) #7
  switch i64 %0, label %8 [
    i64 0, label %3
    i64 -1, label %4
    i64 -2, label %5
    i64 -3, label %6
    i64 -4, label %7
  ]

3:                                                ; preds = %1
  tail call void @llvm.memcpy.p0.p0.i64(ptr noundef nonnull align 1 dereferenceable(15) %2, ptr noundef nonnull align 1 dereferenceable(15) @.str.10, i64 15, i1 false)
  br label %9

4:                                                ; preds = %1
  tail call void @llvm.memcpy.p0.p0.i64(ptr noundef nonnull align 1 dereferenceable(16) %2, ptr noundef nonnull align 1 dereferenceable(16) @.str.11, i64 16, i1 false)
  br label %9

5:                                                ; preds = %1
  tail call void @llvm.memcpy.p0.p0.i64(ptr noundef nonnull align 1 dereferenceable(17) %2, ptr noundef nonnull align 1 dereferenceable(17) @.str.12, i64 17, i1 false)
  br label %9

6:                                                ; preds = %1
  tail call void @llvm.memcpy.p0.p0.i64(ptr noundef nonnull align 1 dereferenceable(17) %2, ptr noundef nonnull align 1 dereferenceable(17) @.str.13, i64 17, i1 false)
  br label %9

7:                                                ; preds = %1
  tail call void @llvm.memcpy.p0.p0.i64(ptr noundef nonnull align 1 dereferenceable(16) %2, ptr noundef nonnull align 1 dereferenceable(16) @.str.14, i64 16, i1 false)
  br label %9

8:                                                ; preds = %1
  tail call void @llvm.memcpy.p0.p0.i64(ptr noundef nonnull align 1 dereferenceable(5) %2, ptr noundef nonnull align 1 dereferenceable(5) @.str.15, i64 5, i1 false)
  br label %9

9:                                                ; preds = %8, %7, %6, %5, %4, %3
  ret ptr %2
}